target datalayout = "e-m:e-p270:32:32-p271:32:32-p272:64:64-i64:64-i128:128-f80:128-n8:16:32:64-S128"
target triple = "x86_64-pc-linux-gnu"

%struct.Fra_Man_t_ = type { ptr, ptr, ptr, i32, ptr, i32, ptr, ptr, ptr, i32, ptr, ptr, ptr, ptr, i32, ptr, i64, i64, ptr, ptr, i32, ptr, i32, i32, i32, i32, i32, i32, i32, i32, i32, i32, i32, i32, i32, i32, i32, i32, i32, i32, i32, i64, i64, i64, i64, i64, i64, i64, i64, i64, i64, i64 }
%struct.Aig_Obj_t_ = type { %union.anon, ptr, ptr, i64, i32, i32, %union.anon.0 }
%union.anon = type { ptr }
%union.anon.0 = type { ptr }

; Function Attrs: inlinehint nounwind uwtable
define internal i32 @toLitCond(i32 noundef %0, i32 noundef %1) #3 {
  %3 = alloca i32, align 4
  %4 = alloca i32, align 4
  store i32 %0, ptr %3, align 4, !tbaa !10
  store i32 %1, ptr %4, align 4, !tbaa !10
  %5 = load i32, ptr %3, align 4, !tbaa !10
  %6 = load i32, ptr %3, align 4, !tbaa !10
  %7 = add nsw i32 %5, %6
  %8 = load i32, ptr %4, align 4, !tbaa !10
  %9 = icmp ne i32 %8, 0
  %10 = zext i1 %9 to i32
  %11 = add nsw i32 %7, %10
  ret i32 %11
}

; Function Attrs: inlinehint nounwind uwtable
define internal i32 @Aig_IsComplement(ptr noundef %0) #3 {
  %2 = alloca ptr, align 8
  store ptr %0, ptr %2, align 8, !tbaa !8
  %3 = load ptr, ptr %2, align 8, !tbaa !8
  %4 = ptrtoint ptr %3 to i64
  %5 = and i64 %4, 1
  %6 = trunc i64 %5 to i32
  ret i32 %6
}

; Function Attrs: inlinehint nounwind uwtable
define internal ptr @Aig_Regular(ptr noundef %0) #3 {
  %2 = alloca ptr, align 8
  store ptr %0, ptr %2, align 8, !tbaa !8
  %3 = load ptr, ptr %2, align 8, !tbaa !8
  %4 = ptrtoint ptr %3 to i64
  %5 = and i64 %4, -2
  %6 = inttoptr i64 %5 to ptr
  ret ptr %6
}

; Function Attrs: inlinehint nounwind uwtable
define internal i32 @Fra_ObjSatNum(ptr noundef %0) #3 {
  %2 = alloca ptr, align 8
  store ptr %0, ptr %2, align 8, !tbaa !8
  %3 = load ptr, ptr %2, align 8, !tbaa !8
  %4 = getelementptr inbounds nuw %struct.Aig_Obj_t_, ptr %3, i32 0, i32 6
  %5 = load ptr, ptr %4, align 8, !tbaa !26
  %6 = getelementptr inbounds nuw %struct.Fra_Man_t_, ptr %5, i32 0, i32 19
  %7 = load ptr, ptr %6, align 8, !tbaa !27
  %8 = load ptr, ptr %2, align 8, !tbaa !8
  %9 = getelementptr inbounds nuw %struct.Aig_Obj_t_, ptr %8, i32 0, i32 5
  %10 = load i32, ptr %9, align 4, !tbaa !28
  %11 = sext i32 %10 to i64
  %12 = getelementptr inbounds i32, ptr %7, i64 %11
  %13 = load i32, ptr %12, align 4, !tbaa !10
  ret i32 %13
}

; Function Attrs: nounwind uwtable
define void @Fra_AddClausesMux(ptr noundef %0, ptr noundef %1) #0 {
  %3 = alloca ptr, align 8
  %4 = alloca ptr, align 8
  %5 = alloca ptr, align 8
  %6 = alloca ptr, align 8
  %7 = alloca ptr, align 8
  %8 = alloca [4 x i32], align 16
  %9 = alloca i32, align 4
  %10 = alloca i32, align 4
  %11 = alloca i32, align 4
  %12 = alloca i32, align 4
  %13 = alloca i32, align 4
  %14 = alloca i32, align 4
  %15 = alloca i32, align 4
  %16 = alloca i32, align 4
  store ptr %0, ptr %3, align 8, !tbaa !3
  store ptr %1, ptr %4, align 8, !tbaa !8
  call void @llvm.lifetime.start.p0(i64 8, ptr %5) #7
  call void @llvm.lifetime.start.p0(i64 8, ptr %6) #7
  call void @llvm.lifetime.start.p0(i64 8, ptr %7) #7
  call void @llvm.lifetime.start.p0(i64 16, ptr %8) #7
  call void @llvm.lifetime.start.p0(i64 4, ptr %9) #7
  call void @llvm.lifetime.start.p0(i64 4, ptr %10) #7
  call void @llvm.lifetime.start.p0(i64 4, ptr %11) #7
  call void @llvm.lifetime.start.p0(i64 4, ptr %12) #7
  call void @llvm.lifetime.start.p0(i64 4, ptr %13) #7
  call void @llvm.lifetime.start.p0(i64 4, ptr %14) #7
  call void @llvm.lifetime.start.p0(i64 4, ptr %15) #7
  %17 = load ptr, ptr %4, align 8, !tbaa !8
  %18 = call ptr @Aig_ObjRecognizeMux(ptr noundef %17, ptr noundef %6, ptr noundef %7)
  store ptr %18, ptr %5, align 8, !tbaa !8
  %19 = load ptr, ptr %4, align 8, !tbaa !8
  %20 = call i32 @Fra_ObjSatNum(ptr noundef %19)
  store i32 %20, ptr %10, align 4, !tbaa !10
  %21 = load ptr, ptr %5, align 8, !tbaa !8
  %22 = call i32 @Fra_ObjSatNum(ptr noundef %21)
  store i32 %22, ptr %11, align 4, !tbaa !10
  %23 = load ptr, ptr %6, align 8, !tbaa !8
  %24 = call ptr @Aig_Regular(ptr noundef %23)
  %25 = call i32 @Fra_ObjSatNum(ptr noundef %24)
  store i32 %25, ptr %12, align 4, !tbaa !10
  %26 = load ptr, ptr %7, align 8, !tbaa !8
  %27 = call ptr @Aig_Regular(ptr noundef %26)
  %28 = call i32 @Fra_ObjSatNum(ptr noundef %27)
  store i32 %28, ptr %13, align 4, !tbaa !10
  %29 = load ptr, ptr %6, align 8, !tbaa !8
  %30 = call i32 @Aig_IsComplement(ptr noundef %29)
  store i32 %30, ptr %14, align 4, !tbaa !10
  %31 = load ptr, ptr %7, align 8, !tbaa !8
  %32 = call i32 @Aig_IsComplement(ptr noundef %31)
  store i32 %32, ptr %15, align 4, !tbaa !10
  %33 = load i32, ptr %11, align 4, !tbaa !10
  %34 = call i32 @toLitCond(i32 noundef %33, i32 noundef 1)
  %35 = getelementptr inbounds [4 x i32], ptr %8, i64 0, i64 0
  store i32 %34, ptr %35, align 16, !tbaa !10
  %36 = load i32, ptr %12, align 4, !tbaa !10
  %37 = load i32, ptr %14, align 4, !tbaa !10
  %38 = xor i32 1, %37
  %39 = call i32 @toLitCond(i32 noundef %36, i32 noundef %38)
  %40 = getelementptr inbounds [4 x i32], ptr %8, i64 0, i64 1
  store i32 %39, ptr %40, align 4, !tbaa !10
  %41 = load i32, ptr %10, align 4, !tbaa !10
  %42 = call i32 @toLitCond(i32 noundef %41, i32 noundef 0)
  %43 = getelementptr inbounds [4 x i32], ptr %8, i64 0, i64 2
  store i32 %42, ptr %43, align 8, !tbaa !10
  %44 = load ptr, ptr %3, align 8, !tbaa !3
  %45 = getelementptr inbounds nuw %struct.Fra_Man_t_, ptr %44, i32 0, i32 13
  %46 = load ptr, ptr %45, align 8, !tbaa !12
  %47 = getelementptr inbounds [4 x i32], ptr %8, i64 0, i64 0
  %48 = getelementptr inbounds [4 x i32], ptr %8, i64 0, i64 0
  %49 = getelementptr inbounds i32, ptr %48, i64 3
  %50 = call i32 @sat_solver_addclause(ptr noundef %46, ptr noundef %47, ptr noundef %49)
  store i32 %50, ptr %9, align 4, !tbaa !10
  %51 = load i32, ptr %11, align 4, !tbaa !10
  %52 = call i32 @toLitCond(i32 noundef %51, i32 noundef 1)
  %53 = getelementptr inbounds [4 x i32], ptr %8, i64 0, i64 0
  store i32 %52, ptr %53, align 16, !tbaa !10
  %54 = load i32, ptr %12, align 4, !tbaa !10
  %55 = load i32, ptr %14, align 4, !tbaa !10
  %56 = xor i32 0, %55
  %57 = call i32 @toLitCond(i32 noundef %54, i32 noundef %56)
  %58 = getelementptr inbounds [4 x i32], ptr %8, i64 0, i64 1
  store i32 %57, ptr %58, align 4, !tbaa !10
  %59 = load i32, ptr %10, align 4, !tbaa !10
  %60 = call i32 @toLitCond(i32 noundef %59, i32 noundef 1)
  %61 = getelementptr inbounds [4 x i32], ptr %8, i64 0, i64 2
  store i32 %60, ptr %61, align 8, !tbaa !10
  %62 = load ptr, ptr %3, align 8, !tbaa !3
  %63 = getelementptr inbounds nuw %struct.Fra_Man_t_, ptr %62, i32 0, i32 13
  %64 = load ptr, ptr %63, align 8, !tbaa !12
  %65 = getelementptr inbounds [4 x i32], ptr %8, i64 0, i64 0
  %66 = getelementptr inbounds [4 x i32], ptr %8, i64 0, i64 0
  %67 = getelementptr inbounds i32, ptr %66, i64 3
  %68 = call i32 @sat_solver_addclause(ptr noundef %64, ptr noundef %65, ptr noundef %67)
  store i32 %68, ptr %9, align 4, !tbaa !10
  %69 = load i32, ptr %11, align 4, !tbaa !10
  %70 = call i32 @toLitCond(i32 noundef %69, i32 noundef 0)
  %71 = getelementptr inbounds [4 x i32], ptr %8, i64 0, i64 0
  store i32 %70, ptr %71, align 16, !tbaa !10
  %72 = load i32, ptr %13, align 4, !tbaa !10
  %73 = load i32, ptr %15, align 4, !tbaa !10
  %74 = xor i32 1, %73
  %75 = call i32 @toLitCond(i32 noundef %72, i32 noundef %74)
  %76 = getelementptr inbounds [4 x i32], ptr %8, i64 0, i64 1
  store i32 %75, ptr %76, align 4, !tbaa !10
  %77 = load i32, ptr %10, align 4, !tbaa !10
  %78 = call i32 @toLitCond(i32 noundef %77, i32 noundef 0)
  %79 = getelementptr inbounds [4 x i32], ptr %8, i64 0, i64 2
  store i32 %78, ptr %79, align 8, !tbaa !10
  %80 = load ptr, ptr %3, align 8, !tbaa !3
  %81 = getelementptr inbounds nuw %struct.Fra_Man_t_, ptr %80, i32 0, i32 13
  %82 = load ptr, ptr %81, align 8, !tbaa !12
  %83 = getelementptr inbounds [4 x i32], ptr %8, i64 0, i64 0
  %84 = getelementptr inbounds [4 x i32], ptr %8, i64 0, i64 0
  %85 = getelementptr inbounds i32, ptr %84, i64 3
  %86 = call i32 @sat_solver_addclause(ptr noundef %82, ptr noundef %83, ptr noundef %85)
  store i32 %86, ptr %9, align 4, !tbaa !10
  %87 = load i32, ptr %11, align 4, !tbaa !10
  %88 = call i32 @toLitCond(i32 noundef %87, i32 noundef 0)
  %89 = getelementptr inbounds [4 x i32], ptr %8, i64 0, i64 0
  store i32 %88, ptr %89, align 16, !tbaa !10
  %90 = load i32, ptr %13, align 4, !tbaa !10
  %91 = load i32, ptr %15, align 4, !tbaa !10
  %92 = xor i32 0, %91
  %93 = call i32 @toLitCond(i32 noundef %90, i32 noundef %92)
  %94 = getelementptr inbounds [4 x i32], ptr %8, i64 0, i64 1
  store i32 %93, ptr %94, align 4, !tbaa !10
  %95 = load i32, ptr %10, align 4, !tbaa !10
  %96 = call i32 @toLitCond(i32 noundef %95, i32 noundef 1)
  %97 = getelementptr inbounds [4 x i32], ptr %8, i64 0, i64 2
  store i32 %96, ptr %97, align 8, !tbaa !10
  %98 = load ptr, ptr %3, align 8, !tbaa !3
  %99 = getelementptr inbounds nuw %struct.Fra_Man_t_, ptr %98, i32 0, i32 13
  %100 = load ptr, ptr %99, align 8, !tbaa !12
  %101 = getelementptr inbounds [4 x i32], ptr %8, i64 0, i64 0
  %102 = getelementptr inbounds [4 x i32], ptr %8, i64 0, i64 0
  %103 = getelementptr inbounds i32, ptr %102, i64 3
  %104 = call i32 @sat_solver_addclause(ptr noundef %100, ptr noundef %101, ptr noundef %103)
  store i32 %104, ptr %9, align 4, !tbaa !10
  %105 = load i32, ptr %12, align 4, !tbaa !10
  %106 = load i32, ptr %13, align 4, !tbaa !10
  %107 = icmp eq i32 %105, %106
  br i1 %107, label %108, label %109

108:                                              ; preds = %2
  store i32 1, ptr %16, align 4
  br label %150

109:                                              ; preds = %2
  %110 = load i32, ptr %12, align 4, !tbaa !10
  %111 = load i32, ptr %14, align 4, !tbaa !10
  %112 = xor i32 0, %111
  %113 = call i32 @toLitCond(i32 noundef %110, i32 noundef %112)
  %114 = getelementptr inbounds [4 x i32], ptr %8, i64 0, i64 0
  store i32 %113, ptr %114, align 16, !tbaa !10
  %115 = load i32, ptr %13, align 4, !tbaa !10
  %116 = load i32, ptr %15, align 4, !tbaa !10
  %117 = xor i32 0, %116
  %118 = call i32 @toLitCond(i32 noundef %115, i32 noundef %117)
  %119 = getelementptr inbounds [4 x i32], ptr %8, i64 0, i64 1
  store i32 %118, ptr %119, align 4, !tbaa !10
  %120 = load i32, ptr %10, align 4, !tbaa !10
  %121 = call i32 @toLitCond(i32 noundef %120, i32 noundef 1)
  %122 = getelementptr inbounds [4 x i32], ptr %8, i64 0, i64 2
  store i32 %121, ptr %122, align 8, !tbaa !10
  %123 = load ptr, ptr %3, align 8, !tbaa !3
  %124 = getelementptr inbounds nuw %struct.Fra_Man_t_, ptr %123, i32 0, i32 13
  %125 = load ptr, ptr %124, align 8, !tbaa !12
  %126 = getelementptr inbounds [4 x i32], ptr %8, i64 0, i64 0
  %127 = getelementptr inbounds [4 x i32], ptr %8, i64 0, i64 0
  %128 = getelementptr inbounds i32, ptr %127, i64 3
  %129 = call i32 @sat_solver_addclause(ptr noundef %125, ptr noundef %126, ptr noundef %128)
  store i32 %129, ptr %9, align 4, !tbaa !10
  %130 = load i32, ptr %12, align 4, !tbaa !10
  %131 = load i32, ptr %14, align 4, !tbaa !10
  %132 = xor i32 1, %131
  %133 = call i32 @toLitCond(i32 noundef %130, i32 noundef %132)
  %134 = getelementptr inbounds [4 x i32], ptr %8, i64 0, i64 0
  store i32 %133, ptr %134, align 16, !tbaa !10
  %135 = load i32, ptr %13, align 4, !tbaa !10
  %136 = load i32, ptr %15, align 4, !tbaa !10
  %137 = xor i32 1, %136
  %138 = call i32 @toLitCond(i32 noundef %135, i32 noundef %137)
  %139 = getelementptr inbounds [4 x i32], ptr %8, i64 0, i64 1
  store i32 %138, ptr %139, align 4, !tbaa !10
  %140 = load i32, ptr %10, align 4, !tbaa !10
  %141 = call i32 @toLitCond(i32 noundef %140, i32 noundef 0)
  %142 = getelementptr inbounds [4 x i32], ptr %8, i64 0, i64 2
  store i32 %141, ptr %142, align 8, !tbaa !10
  %143 = load ptr, ptr %3, align 8, !tbaa !3
  %144 = getelementptr inbounds nuw %struct.Fra_Man_t_, ptr %143, i32 0, i32 13
  %145 = load ptr, ptr %144, align 8, !tbaa !12
  %146 = getelementptr inbounds [4 x i32], ptr %8, i64 0, i64 0
  %147 = getelementptr inbounds [4 x i32], ptr %8, i64 0, i64 0
  %148 = getelementptr inbounds i32, ptr %147, i64 3
  %149 = call i32 @sat_solver_addclause(ptr noundef %145, ptr noundef %146, ptr noundef %148)
  store i32 %149, ptr %9, align 4, !tbaa !10
  store i32 0, ptr %16, align 4
  br label %150

150:                                              ; preds = %109, %108
  call void @llvm.lifetime.end.p0(i64 4, ptr %15) #7
  call void @llvm.lifetime.end.p0(i64 4, ptr %14) #7
  call void @llvm.lifetime.end.p0(i64 4, ptr %13) #7
  call void @llvm.lifetime.end.p0(i64 4, ptr %12) #7
  call void @llvm.lifetime.end.p0(i64 4, ptr %11) #7
  call void @llvm.lifetime.end.p0(i64 4, ptr %10) #7
  call void @llvm.lifetime.end.p0(i64 4, ptr %9) #7
  call void @llvm.lifetime.end.p0(i64 16, ptr %8) #7
  call void @llvm.lifetime.end.p0(i64 8, ptr %7) #7
  call void @llvm.lifetime.end.p0(i64 8, ptr %6) #7
  call void @llvm.lifetime.end.p0(i64 8, ptr %5) #7
  %151 = load i32, ptr %16, align 4
  switch i32 %151, label %153 [
    i32 0, label %152
    i32 1, label %152
  ]

152:                                              ; preds = %150, %150
  ret void

153:                                              ; preds = %150
  unreachable
}