; Function Attrs: nounwind uwtable
define void @Fra_AddClausesMux(ptr noundef readonly captures(none) %0, ptr noundef %1) local_unnamed_addr #0 {
  %3 = alloca ptr, align 8
  %4 = alloca ptr, align 8
  %5 = alloca [4 x i32], align 16
  call void @llvm.lifetime.start.p0(i64 8, ptr nonnull %3) #7
  call void @llvm.lifetime.start.p0(i64 8, ptr nonnull %4) #7
  call void @llvm.lifetime.start.p0(i64 16, ptr nonnull %5) #7
  %6 = call ptr @Aig_ObjRecognizeMux(ptr noundef %1, ptr noundef nonnull %3, ptr noundef nonnull %4) #7
  %7 = getelementptr i8, ptr %1, i64 36
  %.val = load i32, ptr %7, align 4, !tbaa !3
  %8 = getelementptr i8, ptr %1, i64 40
  %.val37 = load ptr, ptr %8, align 8, !tbaa !10
  %9 = getelementptr i8, ptr %.val37, i64 152
  %.val37.val = load ptr, ptr %9, align 8, !tbaa !11
  %10 = sext i32 %.val to i64
  %11 = getelementptr inbounds i32, ptr %.val37.val, i64 %10
  %12 = load i32, ptr %11, align 4, !tbaa !25
  %13 = getelementptr i8, ptr %6, i64 36
  %.val38 = load i32, ptr %13, align 4, !tbaa !3
  %14 = getelementptr i8, ptr %6, i64 40
  %.val39 = load ptr, ptr %14, align 8, !tbaa !10
  %15 = getelementptr i8, ptr %.val39, i64 152
  %.val39.val = load ptr, ptr %15, align 8, !tbaa !11
  %16 = sext i32 %.val38 to i64
  %17 = getelementptr inbounds i32, ptr %.val39.val, i64 %16
  %18 = load i32, ptr %17, align 4, !tbaa !25
  %19 = load ptr, ptr %3, align 8, !tbaa !26
  %20 = ptrtoint ptr %19 to i64
  %21 = and i64 %20, -2
  %22 = inttoptr i64 %21 to ptr
  %23 = getelementptr i8, ptr %22, i64 36
  %.val40 = load i32, ptr %23, align 4, !tbaa !3
  %24 = getelementptr i8, ptr %22, i64 40
  %.val41 = load ptr, ptr %24, align 8, !tbaa !10
  %25 = getelementptr i8, ptr %.val41, i64 152
  %.val41.val = load ptr, ptr %25, align 8, !tbaa !11
  %26 = sext i32 %.val40 to i64
  %27 = getelementptr inbounds i32, ptr %.val41.val, i64 %26
  %28 = load i32, ptr %27, align 4, !tbaa !25
  %29 = load ptr, ptr %4, align 8, !tbaa !26
  %30 = ptrtoint ptr %29 to i64
  %31 = and i64 %30, -2
  %32 = inttoptr i64 %31 to ptr
  %33 = getelementptr i8, ptr %32, i64 36
  %.val42 = load i32, ptr %33, align 4, !tbaa !3
  %34 = getelementptr i8, ptr %32, i64 40
  %.val43 = load ptr, ptr %34, align 8, !tbaa !10
  %35 = getelementptr i8, ptr %.val43, i64 152
  %.val43.val = load ptr, ptr %35, align 8, !tbaa !11
  %36 = sext i32 %.val42 to i64
  %37 = getelementptr inbounds i32, ptr %.val43.val, i64 %36
  %38 = load i32, ptr %37, align 4, !tbaa !25
  %39 = trunc i64 %20 to i32
  %40 = and i32 %39, 1
  %41 = trunc i64 %30 to i32
  %42 = and i32 %41, 1
  %43 = shl nsw i32 %18, 1
  %44 = or disjoint i32 %43, 1
  store i32 %44, ptr %5, align 16, !tbaa !25
  %45 = shl nsw i32 %28, 1
  %46 = or disjoint i32 %45, %40
  %47 = xor i32 %46, 1
  %48 = getelementptr inbounds nuw i8, ptr %5, i64 4
  store i32 %47, ptr %48, align 4, !tbaa !25
  %49 = shl nsw i32 %12, 1
  %50 = getelementptr inbounds nuw i8, ptr %5, i64 8
  store i32 %49, ptr %50, align 8, !tbaa !25
  %51 = getelementptr inbounds nuw i8, ptr %0, i64 104
  %52 = load ptr, ptr %51, align 8, !tbaa !27
  %53 = getelementptr inbounds nuw i8, ptr %5, i64 12
  %54 = call i32 @sat_solver_addclause(ptr noundef %52, ptr noundef nonnull %5, ptr noundef nonnull %53) #7
  store i32 %44, ptr %5, align 16, !tbaa !25
  store i32 %46, ptr %48, align 4, !tbaa !25
  %55 = or disjoint i32 %49, 1
  store i32 %55, ptr %50, align 8, !tbaa !25
  %56 = load ptr, ptr %51, align 8, !tbaa !27
  %57 = call i32 @sat_solver_addclause(ptr noundef %56, ptr noundef nonnull %5, ptr noundef nonnull %53) #7
  store i32 %43, ptr %5, align 16, !tbaa !25
  %58 = shl nsw i32 %38, 1
  %59 = or disjoint i32 %58, %42
  %60 = xor i32 %59, 1
  store i32 %60, ptr %48, align 4, !tbaa !25
  store i32 %49, ptr %50, align 8, !tbaa !25
  %61 = load ptr, ptr %51, align 8, !tbaa !27
  %62 = call i32 @sat_solver_addclause(ptr noundef %61, ptr noundef nonnull %5, ptr noundef nonnull %53) #7
  store i32 %43, ptr %5, align 16, !tbaa !25
  store i32 %59, ptr %48, align 4, !tbaa !25
  store i32 %55, ptr %50, align 8, !tbaa !25
  %63 = load ptr, ptr %51, align 8, !tbaa !27
  %64 = call i32 @sat_solver_addclause(ptr noundef %63, ptr noundef nonnull %5, ptr noundef nonnull %53) #7
  %65 = icmp eq i32 %28, %38
  br i1 %65, label %71, label %66

66:                                               ; preds = %2
  store i32 %46, ptr %5, align 16, !tbaa !25
  store i32 %59, ptr %48, align 4, !tbaa !25
  store i32 %55, ptr %50, align 8, !tbaa !25
  %67 = load ptr, ptr %51, align 8, !tbaa !27
  %68 = call i32 @sat_solver_addclause(ptr noundef %67, ptr noundef nonnull %5, ptr noundef nonnull %53) #7
  store i32 %47, ptr %5, align 16, !tbaa !25
  store i32 %60, ptr %48, align 4, !tbaa !25
  store i32 %49, ptr %50, align 8, !tbaa !25
  %69 = load ptr, ptr %51, align 8, !tbaa !27
  %70 = call i32 @sat_solver_addclause(ptr noundef %69, ptr noundef nonnull %5, ptr noundef nonnull %53) #7
  br label %71

71:                                               ; preds = %2, %66
  call void @llvm.lifetime.end.p0(i64 16, ptr nonnull %5) #7
  call void @llvm.lifetime.end.p0(i64 8, ptr nonnull %4) #7
  call void @llvm.lifetime.end.p0(i64 8, ptr nonnull %3) #7
  ret void
}